target datalayout = "e-m:e-p270:32:32-p271:32:32-p272:64:64-i64:64-i128:128-f80:128-n8:16:32:64-S128"
target triple = "x86_64-pc-linux-gnu"

%class.G1MonotonicArenaMemoryStats = type { [4 x i64], [4 x i64] }
%class.G1MonotonicArenaFreeMemoryTask = type { %class.G1ServiceTask, i32, %class.G1MonotonicArenaMemoryStats, ptr }
%class.G1ServiceTask = type { ptr, i64, ptr, ptr, ptr }

@_ZTV30G1MonotonicArenaFreeMemoryTask = hidden unnamed_addr constant { [3 x ptr] } { [3 x ptr] [ptr null, ptr null, ptr @_ZN30G1MonotonicArenaFreeMemoryTask7executeEv] }, align 8

; Function Attrs: mustprogress nounwind uwtable
define hidden void @_ZN30G1MonotonicArenaFreeMemoryTaskC2EPKc(ptr noundef nonnull align 8 dereferenceable(120) %0, ptr noundef %1) unnamed_addr #1 align 2 {
  %3 = alloca ptr, align 8
  %4 = alloca ptr, align 8
  store ptr %0, ptr %3, align 8
  store ptr %1, ptr %4, align 8
  %5 = load ptr, ptr %3, align 8
  %6 = load ptr, ptr %4, align 8
  call void @_ZN13G1ServiceTaskC2EPKc(ptr noundef nonnull align 8 dereferenceable(40) %5, ptr noundef %6)
  store ptr getelementptr inbounds inrange(-16, 8) ({ [3 x ptr] }, ptr @_ZTV30G1MonotonicArenaFreeMemoryTask, i32 0, i32 0, i32 2), ptr %5, align 8
  %7 = getelementptr inbounds %class.G1MonotonicArenaFreeMemoryTask, ptr %5, i32 0, i32 1
  store i32 1, ptr %7, align 8
  %8 = getelementptr inbounds %class.G1MonotonicArenaFreeMemoryTask, ptr %5, i32 0, i32 2
  call void @_ZN27G1MonotonicArenaMemoryStatsC1Ev(ptr noundef nonnull align 8 dereferenceable(64) %8)
  %9 = getelementptr inbounds %class.G1MonotonicArenaFreeMemoryTask, ptr %5, i32 0, i32 3
  store ptr null, ptr %9, align 8
  ret void
}