; Function Attrs: mustprogress nounwind uwtable
define hidden void @_ZN30G1MonotonicArenaFreeMemoryTaskC2EPKc(ptr noundef nonnull align 8 dereferenceable(120) %0, ptr noundef %1) unnamed_addr #2 align 2 {
  tail call void @_ZN13G1ServiceTaskC2EPKc(ptr noundef nonnull align 8 dereferenceable(40) %0, ptr noundef %1) #14
  store ptr getelementptr inbounds inrange(-16, 8) (i8, ptr @_ZTV30G1MonotonicArenaFreeMemoryTask, i64 16), ptr %0, align 8
  %3 = getelementptr inbounds i8, ptr %0, i64 40
  store i32 1, ptr %3, align 8
  %4 = getelementptr inbounds i8, ptr %0, i64 48
  tail call void @_ZN27G1MonotonicArenaMemoryStatsC1Ev(ptr noundef nonnull align 8 dereferenceable(64) %4) #14
  %5 = getelementptr inbounds i8, ptr %0, i64 112
  store ptr null, ptr %5, align 8
  ret void
}